; Function Attrs: mustprogress uwtable
define noundef ptr @_ZN6icu_778Collator16registerInstanceEPS0_RKNS_6LocaleER10UErrorCode(ptr noundef %0, ptr noundef nonnull align 8 dereferenceable(217) %1, ptr noundef nonnull align 4 dereferenceable(4) %2) local_unnamed_addr #5 align 2 personality ptr @__gxx_personality_v0 {
  %4 = load i32, ptr %2, align 4, !tbaa !6
  %5 = icmp sgt i32 %4, 0
  br i1 %5, label %25, label %6

6:                                                ; preds = %3
  %7 = load ptr, ptr %0, align 8, !tbaa !3
  %8 = getelementptr inbounds nuw i8, ptr %7, i64 280
  %9 = load ptr, ptr %8, align 8
  tail call void %9(ptr noundef nonnull align 8 dereferenceable(8) %0, ptr noundef nonnull align 8 dereferenceable(217) %1, ptr noundef nonnull align 8 dereferenceable(217) %1, ptr noundef nonnull align 8 dereferenceable(217) %1)
  %10 = load atomic i32, ptr @_ZL16gServiceInitOnce acquire, align 4
  %11 = icmp eq i32 %10, 2
  br i1 %11, label %_ZN6icu_77L10getServiceEv.exit, label %12

12:                                               ; preds = %6
  %13 = tail call noundef signext i8 @_ZN6icu_7720umtx_initImplPreInitERNS_9UInitOnceE(ptr noundef nonnull align 4 dereferenceable(8) @_ZL16gServiceInitOnce)
  %.not.i.i = icmp eq i8 %13, 0
  br i1 %.not.i.i, label %_ZN6icu_77L10getServiceEv.exit, label %14

14:                                               ; preds = %12
  %15 = tail call noundef ptr @_ZN6icu_777UMemorynwEm(i64 noundef 408) #16
  %16 = icmp eq ptr %15, null
  br i1 %16, label %_ZN6icu_77L11initServiceEv.exit.i, label %17

17:                                               ; preds = %14
  invoke void @_ZN6icu_7718ICUCollatorServiceC2Ev(ptr noundef nonnull align 8 dereferenceable(408) %15)
          to label %_ZN6icu_77L11initServiceEv.exit.i unwind label %18

18:                                               ; preds = %17
  %19 = landingpad { ptr, i32 }
          cleanup
  tail call void @_ZN6icu_777UMemorydlEPv(ptr noundef nonnull %15) #16
  resume { ptr, i32 } %19

_ZN6icu_77L11initServiceEv.exit.i:                ; preds = %17, %14
  store ptr %15, ptr @_ZL8gService, align 8, !tbaa !15
  tail call void @ucln_i18n_registerCleanup_77(i32 noundef 28, ptr noundef nonnull @_ZL16collator_cleanupv)
  tail call void @_ZN6icu_7721umtx_initImplPostInitERNS_9UInitOnceE(ptr noundef nonnull align 4 dereferenceable(8) @_ZL16gServiceInitOnce)
  br label %_ZN6icu_77L10getServiceEv.exit

_ZN6icu_77L10getServiceEv.exit:                   ; preds = %6, %12, %_ZN6icu_77L11initServiceEv.exit.i
  %20 = load ptr, ptr @_ZL8gService, align 8, !tbaa !15
  %21 = load ptr, ptr %20, align 8, !tbaa !3
  %22 = getelementptr inbounds nuw i8, ptr %21, i64 152
  %23 = load ptr, ptr %22, align 8
  %24 = tail call noundef ptr %23(ptr noundef nonnull align 8 dereferenceable(408) %20, ptr noundef nonnull %0, ptr noundef nonnull align 8 dereferenceable(217) %1, ptr noundef nonnull align 4 dereferenceable(4) %2)
  br label %25

25:                                               ; preds = %3, %_ZN6icu_77L10getServiceEv.exit
  %.0 = phi ptr [ %24, %_ZN6icu_77L10getServiceEv.exit ], [ null, %3 ]
  ret ptr %.0
}